; Function Attrs: nounwind uwtable
define internal i32 @predicatelock_hash(ptr noundef readonly captures(none) %0, i64 %1) #0 {
  %3 = load ptr, ptr @PredicateLockTargetHash, align 8
  %4 = load ptr, ptr %0, align 8
  %5 = tail call i32 @get_hash_value(ptr noundef %3, ptr noundef %4) #12
  %6 = getelementptr inbounds nuw i8, ptr %0, i64 8
  %7 = load ptr, ptr %6, align 8
  %8 = ptrtoint ptr %7 to i64
  %9 = trunc i64 %8 to i32
  %10 = shl i32 %9, 4
  %11 = xor i32 %10, %5
  ret i32 %11
}